#include <math.h>
#include <stdio.h>
#include <stdlib.h>
#include <string.h>
#include <iostream>
using namespace std;

int main(){
	int n,i,j,k;
	cin>>n;//??????n
	int a[n];
	for(i=0;i<n;i++)
		cin>>a[i];//?????
	for(i=0;i<n;i++){//????
	  for(j=i+1;j<n;j++){
		  if(a[j]==a[i]){//????????
			  for(k=j;k<n;k++){
				  a[k]=a[k+1];
			  }
			  j--;
			  n--;//??????????
		  }
	  }
	}
	for(i=0;i<n-1;i++)
		cout<<a[i]<<' ';//??????
	cout<<a[i];//???????
	return 0;
}